; Function Attrs: nounwind sspstrong uwtable
define internal i64 @ossl_x509name_to_s(i32 noundef %0, ptr noundef readonly captures(none) %1, i64 noundef %2) #0 {
  %or.cond.i = icmp ugt i32 %0, 1
  br i1 %or.cond.i, label %4, label %rb_check_arity.exit

4:                                                ; preds = %3
  tail call void @rb_error_arity(i32 noundef %0, i32 noundef 0, i32 noundef 1) #9
  unreachable

rb_check_arity.exit:                              ; preds = %3
  %.not = icmp eq i32 %0, 0
  br i1 %.not, label %8, label %5

5:                                                ; preds = %rb_check_arity.exit
  %6 = load i64, ptr %1, align 8, !tbaa !6
  %7 = icmp eq i64 %6, 4
  br i1 %7, label %8, label %22

8:                                                ; preds = %5, %rb_check_arity.exit
  %9 = tail call ptr @rb_check_typeddata(i64 noundef %2, ptr noundef nonnull @ossl_x509name_type) #8
  %.not.i = icmp eq ptr %9, null
  br i1 %.not.i, label %10, label %12

10:                                               ; preds = %8
  %11 = load i64, ptr @rb_eRuntimeError, align 8, !tbaa !6
  tail call void (i64, ptr, ...) @ossl_raise(i64 noundef %11, ptr noundef nonnull @.str) #9
  unreachable

12:                                               ; preds = %8
  %13 = tail call ptr @X509_NAME_oneline(ptr noundef nonnull %9, ptr noundef null, i32 noundef 0) #8
  %.not6.i = icmp eq ptr %13, null
  br i1 %.not6.i, label %14, label %16

14:                                               ; preds = %12
  %15 = load i64, ptr @eX509NameError, align 8, !tbaa !6
  tail call void (i64, ptr, ...) @ossl_raise(i64 noundef %15, ptr noundef nonnull @.str.39) #9
  unreachable

16:                                               ; preds = %12
  %17 = tail call i64 @strlen(ptr noundef nonnull dereferenceable(1) %13) #11
  %18 = add i64 %17, 2147483648
  %.not.i.i = icmp ult i64 %18, 4294967296
  br i1 %.not.i.i, label %ossl_x509name_to_s_old.exit, label %19

19:                                               ; preds = %16
  tail call void @rb_out_of_int(i64 noundef %17) #10
  unreachable

ossl_x509name_to_s_old.exit:                      ; preds = %16
  %20 = trunc i64 %17 to i32
  %21 = tail call i64 @ossl_buf2str(ptr noundef nonnull %13, i32 noundef %20) #8
  br label %29

22:                                               ; preds = %5
  %23 = and i64 %6, 1
  %.not.i6 = icmp eq i64 %23, 0
  br i1 %.not.i6, label %26, label %24

24:                                               ; preds = %22
  %25 = ashr i64 %6, 1
  br label %rb_num2ulong_inline.exit

26:                                               ; preds = %22
  %27 = tail call i64 @rb_num2ulong(i64 noundef %6) #8
  br label %rb_num2ulong_inline.exit

rb_num2ulong_inline.exit:                         ; preds = %24, %26
  %.0.i = phi i64 [ %25, %24 ], [ %27, %26 ]
  %28 = tail call fastcc i64 @x509name_print(i64 noundef %2, i64 noundef %.0.i)
  br label %29

29:                                               ; preds = %rb_num2ulong_inline.exit, %ossl_x509name_to_s_old.exit
  %.0 = phi i64 [ %21, %ossl_x509name_to_s_old.exit ], [ %28, %rb_num2ulong_inline.exit ]
  ret i64 %.0
}